target datalayout = "e-m:e-p270:32:32-p271:32:32-p272:64:64-i64:64-i128:128-f80:128-n8:16:32:64-S128"
target triple = "x86_64-pc-linux-gnu"

%"class.base::BasicStringPiece" = type { ptr, i64 }
%"class.std::__cxx11::basic_string.1" = type { %"struct.std::__cxx11::basic_string<unsigned short, base::string16_char_traits>::_Alloc_hider", i64, %union.anon.5 }
%"struct.std::__cxx11::basic_string<unsigned short, base::string16_char_traits>::_Alloc_hider" = type { ptr }
%union.anon.5 = type { i64, [8 x i8] }

@.str.2 = private unnamed_addr constant [8 x i8] c"%.1lf%s\00", align 1
@_ZN4baseL23kByteStringsUnlocalizedE = internal constant [6 x ptr] [ptr @.str.4, ptr @.str.5, ptr @.str.6, ptr @.str.7, ptr @.str.8, ptr @.str.9], align 16
@.str.3 = private unnamed_addr constant [8 x i8] c"%.0lf%s\00", align 1

; Function Attrs: mustprogress nounwind uwtable
define linkonce_odr noundef i64 @_ZNSt11char_traitsIcE6lengthEPKc(ptr noundef %0) #0 comdat align 2 {
  %2 = alloca ptr, align 8
  store ptr %0, ptr %2, align 8, !tbaa !18
  %3 = load ptr, ptr %2, align 8, !tbaa !18
  %4 = call i64 @strlen(ptr noundef %3) #17
  ret i64 %4
}

; Function Attrs: mustprogress uwtable
define available_externally void @_ZN4base16BasicStringPieceINSt7__cxx1112basic_stringIcSt11char_traitsIcESaIcEEEEC2EPKc(ptr noundef nonnull align 8 dereferenceable(16) %0, ptr noundef %1) unnamed_addr #3 align 2 {
  %3 = alloca ptr, align 8
  %4 = alloca ptr, align 8
  store ptr %0, ptr %3, align 8, !tbaa !34
  store ptr %1, ptr %4, align 8, !tbaa !18
  %5 = load ptr, ptr %3, align 8
  %6 = getelementptr inbounds nuw %"class.base::BasicStringPiece", ptr %5, i32 0, i32 0
  %7 = load ptr, ptr %4, align 8, !tbaa !18
  store ptr %7, ptr %6, align 8, !tbaa !49
  %8 = getelementptr inbounds nuw %"class.base::BasicStringPiece", ptr %5, i32 0, i32 1
  %9 = load ptr, ptr %4, align 8, !tbaa !18
  %10 = icmp eq ptr %9, null
  br i1 %10, label %11, label %12

11:                                               ; preds = %2
  br label %15

12:                                               ; preds = %2
  %13 = load ptr, ptr %4, align 8, !tbaa !18
  %14 = call noundef i64 @_ZNSt11char_traitsIcE6lengthEPKc(ptr noundef %13)
  br label %15

15:                                               ; preds = %12, %11
  %16 = phi i64 [ 0, %11 ], [ %14, %12 ]
  store i64 %16, ptr %8, align 8, !tbaa !36
  ret void
}

; Function Attrs: mustprogress uwtable
define void @_ZN4base22FormatBytesUnlocalizedB5cxx11El(ptr dead_on_unwind noalias writable sret(%"class.std::__cxx11::basic_string.1") align 8 %0, i64 noundef %1) #3 {
  %3 = alloca ptr, align 8
  %4 = alloca i64, align 8
  %5 = alloca double, align 8
  %6 = alloca i64, align 8
  %7 = alloca i32, align 4
  %8 = alloca [64 x i8], align 16
  %9 = alloca %"class.base::BasicStringPiece", align 8
  store ptr %0, ptr %3, align 8
  store i64 %1, ptr %4, align 8, !tbaa !20
  call void @llvm.lifetime.start.p0(i64 8, ptr %5) #17
  %10 = load i64, ptr %4, align 8, !tbaa !20
  %11 = sitofp i64 %10 to double
  store double %11, ptr %5, align 8, !tbaa !89
  call void @llvm.lifetime.start.p0(i64 8, ptr %6) #17
  store i64 0, ptr %6, align 8, !tbaa !20
  call void @llvm.lifetime.start.p0(i64 4, ptr %7) #17
  store i32 1024, ptr %7, align 4, !tbaa !52
  br label %12

12:                                               ; preds = %20, %2
  %13 = load double, ptr %5, align 8, !tbaa !89
  %14 = fcmp oge double %13, 1.024000e+03
  br i1 %14, label %15, label %18

15:                                               ; preds = %12
  %16 = load i64, ptr %6, align 8, !tbaa !20
  %17 = icmp ult i64 %16, 5
  br label %18

18:                                               ; preds = %15, %12
  %19 = phi i1 [ false, %12 ], [ %17, %15 ]
  br i1 %19, label %20, label %25

20:                                               ; preds = %18
  %21 = load double, ptr %5, align 8, !tbaa !89
  %22 = fdiv double %21, 1.024000e+03
  store double %22, ptr %5, align 8, !tbaa !89
  %23 = load i64, ptr %6, align 8, !tbaa !20
  %24 = add i64 %23, 1
  store i64 %24, ptr %6, align 8, !tbaa !20
  br label %12, !llvm.loop !91

25:                                               ; preds = %18
  call void @llvm.lifetime.start.p0(i64 64, ptr %8) #17
  %26 = load i64, ptr %4, align 8, !tbaa !20
  %27 = icmp ne i64 %26, 0
  br i1 %27, label %28, label %41

28:                                               ; preds = %25
  %29 = load i64, ptr %6, align 8, !tbaa !20
  %30 = icmp ugt i64 %29, 0
  br i1 %30, label %31, label %41

31:                                               ; preds = %28
  %32 = load double, ptr %5, align 8, !tbaa !89
  %33 = fcmp olt double %32, 1.000000e+02
  br i1 %33, label %34, label %41

34:                                               ; preds = %31
  %35 = getelementptr inbounds [64 x i8], ptr %8, i64 0, i64 0
  %36 = load double, ptr %5, align 8, !tbaa !89
  %37 = load i64, ptr %6, align 8, !tbaa !20
  %38 = getelementptr inbounds nuw [6 x ptr], ptr @_ZN4baseL23kByteStringsUnlocalizedE, i64 0, i64 %37
  %39 = load ptr, ptr %38, align 8, !tbaa !18
  %40 = call noundef i32 (ptr, i64, ptr, ...) @_ZN4base8snprintfEPcmPKcz(ptr noundef %35, i64 noundef 64, ptr noundef @.str.2, double noundef %36, ptr noundef %39)
  br label %48

41:                                               ; preds = %31, %28, %25
  %42 = getelementptr inbounds [64 x i8], ptr %8, i64 0, i64 0
  %43 = load double, ptr %5, align 8, !tbaa !89
  %44 = load i64, ptr %6, align 8, !tbaa !20
  %45 = getelementptr inbounds nuw [6 x ptr], ptr @_ZN4baseL23kByteStringsUnlocalizedE, i64 0, i64 %44
  %46 = load ptr, ptr %45, align 8, !tbaa !18
  %47 = call noundef i32 (ptr, i64, ptr, ...) @_ZN4base8snprintfEPcmPKcz(ptr noundef %42, i64 noundef 64, ptr noundef @.str.3, double noundef %43, ptr noundef %46)
  br label %48

48:                                               ; preds = %41, %34
  %49 = getelementptr inbounds [64 x i8], ptr %8, i64 0, i64 0
  call void @_ZN4base16BasicStringPieceINSt7__cxx1112basic_stringIcSt11char_traitsIcESaIcEEEEC2EPKc(ptr noundef nonnull align 8 dereferenceable(16) %9, ptr noundef %49)
  %50 = getelementptr inbounds nuw { ptr, i64 }, ptr %9, i32 0, i32 0
  %51 = load ptr, ptr %50, align 8
  %52 = getelementptr inbounds nuw { ptr, i64 }, ptr %9, i32 0, i32 1
  %53 = load i64, ptr %52, align 8
  call void @_ZN4base12ASCIIToUTF16ENS_16BasicStringPieceINSt7__cxx1112basic_stringIcSt11char_traitsIcESaIcEEEEE(ptr dead_on_unwind writable sret(%"class.std::__cxx11::basic_string.1") align 8 %0, ptr %51, i64 %53)
  call void @llvm.lifetime.end.p0(i64 64, ptr %8) #17
  call void @llvm.lifetime.end.p0(i64 4, ptr %7) #17
  call void @llvm.lifetime.end.p0(i64 8, ptr %6) #17
  call void @llvm.lifetime.end.p0(i64 8, ptr %5) #17
  ret void
}