; Function Attrs: mustprogress uwtable
define void @_ZN4base22FormatBytesUnlocalizedB5cxx11El(ptr dead_on_unwind noalias writable sret(%"class.std::__cxx11::basic_string.1") align 8 %0, i64 noundef %1) local_unnamed_addr #3 {
  %3 = alloca [64 x i8], align 16
  %4 = sitofp i64 %1 to double
  %5 = icmp sgt i64 %1, 1023
  br i1 %5, label %.lr.ph, label %._crit_edge.thread

._crit_edge.thread:                               ; preds = %2
  call void @llvm.lifetime.start.p0(i64 64, ptr nonnull %3) #28
  br label %16

.lr.ph:                                           ; preds = %2, %.lr.ph
  %.016 = phi double [ %6, %.lr.ph ], [ %4, %2 ]
  %.01415 = phi i64 [ %7, %.lr.ph ], [ 0, %2 ]
  %6 = fmul double %.016, 0x3F50000000000000
  %7 = add nuw nsw i64 %.01415, 1
  %8 = fcmp oge double %6, 1.024000e+03
  %9 = icmp samesign ult i64 %.01415, 4
  %10 = select i1 %8, i1 %9, i1 false
  br i1 %10, label %.lr.ph, label %._crit_edge, !llvm.loop !100

._crit_edge:                                      ; preds = %.lr.ph
  call void @llvm.lifetime.start.p0(i64 64, ptr nonnull %3) #28
  %11 = fcmp olt double %6, 1.000000e+02
  br i1 %11, label %12, label %16

12:                                               ; preds = %._crit_edge
  %13 = getelementptr inbounds nuw [6 x ptr], ptr @_ZN4baseL23kByteStringsUnlocalizedE, i64 0, i64 %7
  %14 = load ptr, ptr %13, align 8, !tbaa !71
  %15 = call noundef i32 (ptr, i64, ptr, ...) @_ZN4base8snprintfEPcmPKcz(ptr noundef nonnull %3, i64 noundef 64, ptr noundef nonnull @.str.2, double noundef %6, ptr noundef %14)
  br label %20

16:                                               ; preds = %._crit_edge.thread, %._crit_edge
  %.0.lcssa24 = phi double [ %4, %._crit_edge.thread ], [ %6, %._crit_edge ]
  %.014.lcssa23 = phi i64 [ 0, %._crit_edge.thread ], [ %7, %._crit_edge ]
  %17 = getelementptr inbounds nuw [6 x ptr], ptr @_ZN4baseL23kByteStringsUnlocalizedE, i64 0, i64 %.014.lcssa23
  %18 = load ptr, ptr %17, align 8, !tbaa !71
  %19 = call noundef i32 (ptr, i64, ptr, ...) @_ZN4base8snprintfEPcmPKcz(ptr noundef nonnull %3, i64 noundef 64, ptr noundef nonnull @.str.3, double noundef %.0.lcssa24, ptr noundef %18)
  br label %20

20:                                               ; preds = %16, %12
  %21 = call noundef i64 @strlen(ptr noundef nonnull dereferenceable(1) %3) #28
  call void @_ZN4base12ASCIIToUTF16ENS_16BasicStringPieceINSt7__cxx1112basic_stringIcSt11char_traitsIcESaIcEEEEE(ptr dead_on_unwind writable sret(%"class.std::__cxx11::basic_string.1") align 8 %0, ptr nonnull %3, i64 %21)
  call void @llvm.lifetime.end.p0(i64 64, ptr nonnull %3) #28
  ret void
}